target datalayout = "e-m:e-p270:32:32-p271:32:32-p272:64:64-i64:64-i128:128-f80:128-n8:16:32:64-S128"
target triple = "x86_64-pc-linux-gnu"

%struct.__loadu_ps = type { <4 x float> }
%struct.stbir__contributors = type { i32, i32 }
%struct.__mm_storel_epi64_struct = type { i64 }

; Function Attrs: alwaysinline nounwind uwtable
define available_externally void @_mm_storel_epi64(ptr noundef %0, <2 x i64> noundef %1) #2 {
  %3 = alloca ptr, align 8
  %4 = alloca <2 x i64>, align 16
  store ptr %0, ptr %3, align 8, !tbaa !3
  store <2 x i64> %1, ptr %4, align 16, !tbaa !12
  %5 = load <2 x i64>, ptr %4, align 16, !tbaa !12
  %6 = extractelement <2 x i64> %5, i32 0
  %7 = load ptr, ptr %3, align 8, !tbaa !3
  %8 = getelementptr inbounds nuw %struct.__mm_storel_epi64_struct, ptr %7, i32 0, i32 0
  store i64 %6, ptr %8, align 1, !tbaa !12
  ret void
}

; Function Attrs: alwaysinline nounwind uwtable
define available_externally <4 x float> @_mm_add_ps(<4 x float> noundef %0, <4 x float> noundef %1) #2 {
  %3 = alloca <4 x float>, align 16
  %4 = alloca <4 x float>, align 16
  store <4 x float> %0, ptr %3, align 16, !tbaa !12
  store <4 x float> %1, ptr %4, align 16, !tbaa !12
  %5 = load <4 x float>, ptr %3, align 16, !tbaa !12
  %6 = load <4 x float>, ptr %4, align 16, !tbaa !12
  %7 = fadd <4 x float> %5, %6
  ret <4 x float> %7
}

; Function Attrs: alwaysinline nounwind uwtable
define available_externally <4 x float> @_mm_mul_ps(<4 x float> noundef %0, <4 x float> noundef %1) #2 {
  %3 = alloca <4 x float>, align 16
  %4 = alloca <4 x float>, align 16
  store <4 x float> %0, ptr %3, align 16, !tbaa !12
  store <4 x float> %1, ptr %4, align 16, !tbaa !12
  %5 = load <4 x float>, ptr %3, align 16, !tbaa !12
  %6 = load <4 x float>, ptr %4, align 16, !tbaa !12
  %7 = fmul <4 x float> %5, %6
  ret <4 x float> %7
}

; Function Attrs: alwaysinline nounwind uwtable
define available_externally <4 x float> @_mm_castsi128_ps(<2 x i64> noundef %0) #2 {
  %2 = alloca <2 x i64>, align 16
  store <2 x i64> %0, ptr %2, align 16, !tbaa !12
  %3 = load <2 x i64>, ptr %2, align 16, !tbaa !12
  %4 = bitcast <2 x i64> %3 to <4 x float>
  ret <4 x float> %4
}

; Function Attrs: alwaysinline nounwind uwtable
define available_externally <2 x i64> @_mm_castps_si128(<4 x float> noundef %0) #2 {
  %2 = alloca <4 x float>, align 16
  store <4 x float> %0, ptr %2, align 16, !tbaa !12
  %3 = load <4 x float>, ptr %2, align 16, !tbaa !12
  %4 = bitcast <4 x float> %3 to <2 x i64>
  ret <2 x i64> %4
}

; Function Attrs: alwaysinline nounwind uwtable
define available_externally <4 x float> @_mm_loadu_ps(ptr noundef %0) #2 {
  %2 = alloca ptr, align 8
  store ptr %0, ptr %2, align 8, !tbaa !21
  %3 = load ptr, ptr %2, align 8, !tbaa !21
  %4 = getelementptr inbounds nuw %struct.__loadu_ps, ptr %3, i32 0, i32 0
  %5 = load <4 x float>, ptr %4, align 1, !tbaa !12
  ret <4 x float> %5
}

; Function Attrs: nounwind uwtable
define void @stbir__horizontal_gather_2_channels_with_n_coeffs_mod0(ptr noundef %0, i32 noundef %1, ptr noundef %2, ptr noundef %3, ptr noundef %4, i32 noundef %5) #0 {
  %7 = alloca ptr, align 8
  %8 = alloca i32, align 4
  %9 = alloca ptr, align 8
  %10 = alloca ptr, align 8
  %11 = alloca ptr, align 8
  %12 = alloca i32, align 4
  %13 = alloca ptr, align 8
  %14 = alloca ptr, align 8
  %15 = alloca ptr, align 8
  %16 = alloca i32, align 4
  %17 = alloca ptr, align 8
  %18 = alloca <4 x float>, align 16
  %19 = alloca <4 x float>, align 16
  %20 = alloca <4 x float>, align 16
  %21 = alloca <4 x float>, align 16
  store ptr %0, ptr %7, align 8, !tbaa !21
  store i32 %1, ptr %8, align 4, !tbaa !26
  store ptr %2, ptr %9, align 8, !tbaa !21
  store ptr %3, ptr %10, align 8, !tbaa !3
  store ptr %4, ptr %11, align 8, !tbaa !21
  store i32 %5, ptr %12, align 4, !tbaa !26
  call void @llvm.lifetime.start.p0(i64 8, ptr %13) #12
  %22 = load ptr, ptr %7, align 8, !tbaa !21
  %23 = load i32, ptr %8, align 4, !tbaa !26
  %24 = mul i32 %23, 2
  %25 = zext i32 %24 to i64
  %26 = getelementptr inbounds nuw float, ptr %22, i64 %25
  store ptr %26, ptr %13, align 8, !tbaa !21
  call void @llvm.lifetime.start.p0(i64 8, ptr %14) #12
  %27 = load ptr, ptr %7, align 8, !tbaa !21
  store ptr %27, ptr %14, align 8, !tbaa !21
  br label %28

28:                                               ; preds = %137, %6
  call void @llvm.lifetime.start.p0(i64 8, ptr %15) #12
  %29 = load ptr, ptr %9, align 8, !tbaa !21
  %30 = load ptr, ptr %10, align 8, !tbaa !3
  %31 = getelementptr inbounds nuw %struct.stbir__contributors, ptr %30, i32 0, i32 0
  %32 = load i32, ptr %31, align 4, !tbaa !41
  %33 = mul nsw i32 %32, 2
  %34 = sext i32 %33 to i64
  %35 = getelementptr inbounds float, ptr %29, i64 %34
  store ptr %35, ptr %15, align 8, !tbaa !21
  call void @llvm.lifetime.start.p0(i64 4, ptr %16) #12
  %36 = load ptr, ptr %10, align 8, !tbaa !3
  %37 = getelementptr inbounds nuw %struct.stbir__contributors, ptr %36, i32 0, i32 1
  %38 = load i32, ptr %37, align 4, !tbaa !44
  %39 = load ptr, ptr %10, align 8, !tbaa !3
  %40 = getelementptr inbounds nuw %struct.stbir__contributors, ptr %39, i32 0, i32 0
  %41 = load i32, ptr %40, align 4, !tbaa !41
  %42 = sub nsw i32 %38, %41
  %43 = add nsw i32 %42, 1
  %44 = sub nsw i32 %43, 4
  %45 = add nsw i32 %44, 3
  %46 = ashr i32 %45, 2
  store i32 %46, ptr %16, align 4, !tbaa !26
  call void @llvm.lifetime.start.p0(i64 8, ptr %17) #12
  %47 = load ptr, ptr %11, align 8, !tbaa !21
  store ptr %47, ptr %17, align 8, !tbaa !21
  call void @llvm.lifetime.start.p0(i64 16, ptr %18) #12
  call void @llvm.lifetime.start.p0(i64 16, ptr %19) #12
  call void @llvm.lifetime.start.p0(i64 16, ptr %20) #12
  call void @llvm.lifetime.start.p0(i64 16, ptr %21) #12
  %48 = load ptr, ptr %15, align 8, !tbaa !21
  call void asm sideeffect "", "r,~{dirflag},~{fpsr},~{flags}"(ptr %48) #12, !srcloc !615
  %49 = load ptr, ptr %17, align 8, !tbaa !21
  %50 = call <4 x float> @_mm_loadu_ps(ptr noundef %49)
  store <4 x float> %50, ptr %21, align 16, !tbaa !12
  %51 = load <4 x float>, ptr %21, align 16, !tbaa !12
  %52 = call <2 x i64> @_mm_castps_si128(<4 x float> noundef %51)
  %53 = bitcast <2 x i64> %52 to <4 x i32>
  %54 = shufflevector <4 x i32> %53, <4 x i32> poison, <4 x i32> <i32 0, i32 0, i32 1, i32 1>
  %55 = bitcast <4 x i32> %54 to <2 x i64>
  %56 = call <4 x float> @_mm_castsi128_ps(<2 x i64> noundef %55)
  store <4 x float> %56, ptr %20, align 16, !tbaa !12
  %57 = load <4 x float>, ptr %20, align 16, !tbaa !12
  %58 = load ptr, ptr %15, align 8, !tbaa !21
  %59 = call <4 x float> @_mm_loadu_ps(ptr noundef %58)
  %60 = call <4 x float> @_mm_mul_ps(<4 x float> noundef %57, <4 x float> noundef %59)
  store <4 x float> %60, ptr %18, align 16, !tbaa !12
  %61 = load <4 x float>, ptr %21, align 16, !tbaa !12
  %62 = call <2 x i64> @_mm_castps_si128(<4 x float> noundef %61)
  %63 = bitcast <2 x i64> %62 to <4 x i32>
  %64 = shufflevector <4 x i32> %63, <4 x i32> poison, <4 x i32> <i32 2, i32 2, i32 3, i32 3>
  %65 = bitcast <4 x i32> %64 to <2 x i64>
  %66 = call <4 x float> @_mm_castsi128_ps(<2 x i64> noundef %65)
  store <4 x float> %66, ptr %20, align 16, !tbaa !12
  %67 = load <4 x float>, ptr %20, align 16, !tbaa !12
  %68 = load ptr, ptr %15, align 8, !tbaa !21
  %69 = getelementptr inbounds float, ptr %68, i64 4
  %70 = call <4 x float> @_mm_loadu_ps(ptr noundef %69)
  %71 = call <4 x float> @_mm_mul_ps(<4 x float> noundef %67, <4 x float> noundef %70)
  store <4 x float> %71, ptr %19, align 16, !tbaa !12
  br label %72

72:                                               ; preds = %110, %28
  %73 = load ptr, ptr %17, align 8, !tbaa !21
  %74 = getelementptr inbounds float, ptr %73, i64 4
  store ptr %74, ptr %17, align 8, !tbaa !21
  %75 = load ptr, ptr %15, align 8, !tbaa !21
  %76 = getelementptr inbounds float, ptr %75, i64 8
  store ptr %76, ptr %15, align 8, !tbaa !21
  %77 = load ptr, ptr %15, align 8, !tbaa !21
  call void asm sideeffect "", "r,~{dirflag},~{fpsr},~{flags}"(ptr %77) #12, !srcloc !616
  %78 = load ptr, ptr %17, align 8, !tbaa !21
  %79 = getelementptr inbounds float, ptr %78, i64 0
  %80 = call <4 x float> @_mm_loadu_ps(ptr noundef %79)
  store <4 x float> %80, ptr %21, align 16, !tbaa !12
  %81 = load <4 x float>, ptr %21, align 16, !tbaa !12
  %82 = call <2 x i64> @_mm_castps_si128(<4 x float> noundef %81)
  %83 = bitcast <2 x i64> %82 to <4 x i32>
  %84 = shufflevector <4 x i32> %83, <4 x i32> poison, <4 x i32> <i32 0, i32 0, i32 1, i32 1>
  %85 = bitcast <4 x i32> %84 to <2 x i64>
  %86 = call <4 x float> @_mm_castsi128_ps(<2 x i64> noundef %85)
  store <4 x float> %86, ptr %20, align 16, !tbaa !12
  %87 = load <4 x float>, ptr %18, align 16, !tbaa !12
  %88 = load <4 x float>, ptr %20, align 16, !tbaa !12
  %89 = load ptr, ptr %15, align 8, !tbaa !21
  %90 = getelementptr inbounds float, ptr %89, i64 0
  %91 = call <4 x float> @_mm_loadu_ps(ptr noundef %90)
  %92 = call <4 x float> @_mm_mul_ps(<4 x float> noundef %88, <4 x float> noundef %91)
  %93 = call <4 x float> @_mm_add_ps(<4 x float> noundef %87, <4 x float> noundef %92)
  store <4 x float> %93, ptr %18, align 16, !tbaa !12
  %94 = load <4 x float>, ptr %21, align 16, !tbaa !12
  %95 = call <2 x i64> @_mm_castps_si128(<4 x float> noundef %94)
  %96 = bitcast <2 x i64> %95 to <4 x i32>
  %97 = shufflevector <4 x i32> %96, <4 x i32> poison, <4 x i32> <i32 2, i32 2, i32 3, i32 3>
  %98 = bitcast <4 x i32> %97 to <2 x i64>
  %99 = call <4 x float> @_mm_castsi128_ps(<2 x i64> noundef %98)
  store <4 x float> %99, ptr %20, align 16, !tbaa !12
  %100 = load <4 x float>, ptr %19, align 16, !tbaa !12
  %101 = load <4 x float>, ptr %20, align 16, !tbaa !12
  %102 = load ptr, ptr %15, align 8, !tbaa !21
  %103 = getelementptr inbounds float, ptr %102, i64 0
  %104 = getelementptr inbounds float, ptr %103, i64 4
  %105 = call <4 x float> @_mm_loadu_ps(ptr noundef %104)
  %106 = call <4 x float> @_mm_mul_ps(<4 x float> noundef %101, <4 x float> noundef %105)
  %107 = call <4 x float> @_mm_add_ps(<4 x float> noundef %100, <4 x float> noundef %106)
  store <4 x float> %107, ptr %19, align 16, !tbaa !12
  %108 = load i32, ptr %16, align 4, !tbaa !26
  %109 = add nsw i32 %108, -1
  store i32 %109, ptr %16, align 4, !tbaa !26
  br label %110

110:                                              ; preds = %72
  %111 = load i32, ptr %16, align 4, !tbaa !26
  %112 = icmp sgt i32 %111, 0
  br i1 %112, label %72, label %113, !llvm.loop !617

113:                                              ; preds = %110
  %114 = load <4 x float>, ptr %18, align 16, !tbaa !12
  %115 = load <4 x float>, ptr %19, align 16, !tbaa !12
  %116 = call <4 x float> @_mm_add_ps(<4 x float> noundef %114, <4 x float> noundef %115)
  store <4 x float> %116, ptr %18, align 16, !tbaa !12
  %117 = load <4 x float>, ptr %18, align 16, !tbaa !12
  %118 = call <2 x i64> @_mm_castps_si128(<4 x float> noundef %117)
  %119 = bitcast <2 x i64> %118 to <4 x i32>
  %120 = shufflevector <4 x i32> %119, <4 x i32> poison, <4 x i32> <i32 2, i32 3, i32 0, i32 1>
  %121 = bitcast <4 x i32> %120 to <2 x i64>
  %122 = call <4 x float> @_mm_castsi128_ps(<2 x i64> noundef %121)
  store <4 x float> %122, ptr %20, align 16, !tbaa !12
  %123 = load <4 x float>, ptr %18, align 16, !tbaa !12
  %124 = load <4 x float>, ptr %20, align 16, !tbaa !12
  %125 = call <4 x float> @_mm_add_ps(<4 x float> noundef %123, <4 x float> noundef %124)
  store <4 x float> %125, ptr %18, align 16, !tbaa !12
  %126 = load ptr, ptr %14, align 8, !tbaa !21
  %127 = load <4 x float>, ptr %18, align 16, !tbaa !12
  %128 = call <2 x i64> @_mm_castps_si128(<4 x float> noundef %127)
  call void @_mm_storel_epi64(ptr noundef %126, <2 x i64> noundef %128)
  %129 = load i32, ptr %12, align 4, !tbaa !26
  %130 = load ptr, ptr %11, align 8, !tbaa !21
  %131 = sext i32 %129 to i64
  %132 = getelementptr inbounds float, ptr %130, i64 %131
  store ptr %132, ptr %11, align 8, !tbaa !21
  %133 = load ptr, ptr %10, align 8, !tbaa !3
  %134 = getelementptr inbounds nuw %struct.stbir__contributors, ptr %133, i32 1
  store ptr %134, ptr %10, align 8, !tbaa !3
  %135 = load ptr, ptr %14, align 8, !tbaa !21
  %136 = getelementptr inbounds float, ptr %135, i64 2
  store ptr %136, ptr %14, align 8, !tbaa !21
  call void @llvm.lifetime.end.p0(i64 16, ptr %21) #12
  call void @llvm.lifetime.end.p0(i64 16, ptr %20) #12
  call void @llvm.lifetime.end.p0(i64 16, ptr %19) #12
  call void @llvm.lifetime.end.p0(i64 16, ptr %18) #12
  call void @llvm.lifetime.end.p0(i64 8, ptr %17) #12
  call void @llvm.lifetime.end.p0(i64 4, ptr %16) #12
  call void @llvm.lifetime.end.p0(i64 8, ptr %15) #12
  br label %137

137:                                              ; preds = %113
  %138 = load ptr, ptr %14, align 8, !tbaa !21
  %139 = load ptr, ptr %13, align 8, !tbaa !21
  %140 = icmp ult ptr %138, %139
  br i1 %140, label %28, label %141, !llvm.loop !618

141:                                              ; preds = %137
  call void @llvm.lifetime.end.p0(i64 8, ptr %14) #12
  call void @llvm.lifetime.end.p0(i64 8, ptr %13) #12
  ret void
}