; Function Attrs: nounwind uwtable
define void @stbir__horizontal_gather_2_channels_with_n_coeffs_mod0(ptr noundef writeonly captures(address) %0, i32 noundef %1, ptr noundef %2, ptr noundef readonly captures(none) %3, ptr noundef readonly captures(none) %4, i32 noundef %5) #0 {
  %7 = shl i32 %1, 1
  %8 = zext i32 %7 to i64
  %9 = getelementptr inbounds nuw float, ptr %0, i64 %8
  %10 = sext i32 %5 to i64
  br label %11

11:                                               ; preds = %43, %6
  %.048 = phi ptr [ %4, %6 ], [ %49, %43 ]
  %.047 = phi ptr [ %3, %6 ], [ %50, %43 ]
  %.046 = phi ptr [ %0, %6 ], [ %51, %43 ]
  %12 = load i32, ptr %.047, align 4, !tbaa !34
  %13 = shl nsw i32 %12, 1
  %14 = sext i32 %13 to i64
  %15 = getelementptr inbounds float, ptr %2, i64 %14
  %16 = getelementptr inbounds nuw i8, ptr %.047, i64 4
  %17 = load i32, ptr %16, align 4, !tbaa !37
  %18 = sub nsw i32 %17, %12
  %19 = ashr i32 %18, 2
  tail call void asm sideeffect "", "r,~{dirflag},~{fpsr},~{flags}"(ptr %15) #24, !srcloc !539
  %20 = load <4 x float>, ptr %.048, align 1, !tbaa !4
  %21 = shufflevector <4 x float> %20, <4 x float> poison, <4 x i32> <i32 0, i32 0, i32 1, i32 1>
  %22 = load <4 x float>, ptr %15, align 1, !tbaa !4
  %23 = fmul <4 x float> %22, %21
  %24 = shufflevector <4 x float> %20, <4 x float> poison, <4 x i32> <i32 2, i32 2, i32 3, i32 3>
  %25 = getelementptr inbounds nuw i8, ptr %15, i64 16
  %26 = load <4 x float>, ptr %25, align 1, !tbaa !4
  %27 = fmul <4 x float> %24, %26
  br label %28

28:                                               ; preds = %28, %11
  %.045 = phi ptr [ %15, %11 ], [ %30, %28 ]
  %.044 = phi i32 [ %19, %11 ], [ %41, %28 ]
  %.043 = phi ptr [ %.048, %11 ], [ %29, %28 ]
  %.042 = phi <4 x float> [ %23, %11 ], [ %35, %28 ]
  %.0 = phi <4 x float> [ %27, %11 ], [ %40, %28 ]
  %29 = getelementptr inbounds nuw i8, ptr %.043, i64 16
  %30 = getelementptr inbounds nuw i8, ptr %.045, i64 32
  tail call void asm sideeffect "", "r,~{dirflag},~{fpsr},~{flags}"(ptr nonnull %30) #24, !srcloc !540
  %31 = load <4 x float>, ptr %29, align 1, !tbaa !4
  %32 = shufflevector <4 x float> %31, <4 x float> poison, <4 x i32> <i32 0, i32 0, i32 1, i32 1>
  %33 = load <4 x float>, ptr %30, align 1, !tbaa !4
  %34 = fmul <4 x float> %33, %32
  %35 = fadd <4 x float> %.042, %34
  %36 = shufflevector <4 x float> %31, <4 x float> poison, <4 x i32> <i32 2, i32 2, i32 3, i32 3>
  %37 = getelementptr inbounds nuw i8, ptr %.045, i64 48
  %38 = load <4 x float>, ptr %37, align 1, !tbaa !4
  %39 = fmul <4 x float> %36, %38
  %40 = fadd <4 x float> %.0, %39
  %41 = add nsw i32 %.044, -1
  %42 = icmp sgt i32 %.044, 1
  br i1 %42, label %28, label %43, !llvm.loop !541

43:                                               ; preds = %28
  %44 = fadd <4 x float> %35, %40
  %45 = shufflevector <4 x float> %44, <4 x float> poison, <4 x i32> <i32 2, i32 3, i32 poison, i32 poison>
  %46 = fadd <4 x float> %44, %45
  %47 = bitcast <4 x float> %46 to <2 x i64>
  %48 = extractelement <2 x i64> %47, i64 0
  store i64 %48, ptr %.046, align 1, !tbaa !4
  %49 = getelementptr inbounds float, ptr %.048, i64 %10
  %50 = getelementptr inbounds nuw i8, ptr %.047, i64 8
  %51 = getelementptr inbounds nuw i8, ptr %.046, i64 8
  %52 = icmp ult ptr %51, %9
  br i1 %52, label %11, label %53, !llvm.loop !542

53:                                               ; preds = %43
  ret void
}